; Function Attrs: nounwind uwtable
define dso_local range(i32 0, 2) i32 @WPACKET_finish(ptr noundef captures(none) %0) local_unnamed_addr #0 {
  %2 = getelementptr inbounds nuw i8, ptr %0, i64 40
  %3 = load ptr, ptr %2, align 8, !tbaa !4
  %4 = icmp eq ptr %3, null
  br i1 %4, label %11, label %5

5:                                                ; preds = %1
  %6 = load ptr, ptr %3, align 8, !tbaa !25
  %.not = icmp eq ptr %6, null
  br i1 %.not, label %7, label %11

7:                                                ; preds = %5
  %8 = tail call fastcc i32 @wpacket_intern_close(ptr noundef nonnull %0, ptr noundef %3, i32 noundef 1)
  %.not9 = icmp eq i32 %8, 0
  br i1 %.not9, label %11, label %9

9:                                                ; preds = %7
  %10 = load ptr, ptr %2, align 8, !tbaa !4
  tail call void @CRYPTO_free(ptr noundef %10, ptr noundef nonnull @.str, i32 noundef 359) #12
  store ptr null, ptr %2, align 8, !tbaa !4
  br label %11

11:                                               ; preds = %7, %9, %1, %5
  %.0 = phi i32 [ 0, %5 ], [ 0, %1 ], [ 1, %9 ], [ 0, %7 ]
  ret i32 %.0
}